target datalayout = "e-m:e-p270:32:32-p271:32:32-p272:64:64-i64:64-i128:128-f80:128-n8:16:32:64-S128"
target triple = "x86_64-pc-linux-gnu"

%struct.ResourceOwnerData = type { ptr, ptr, ptr, ptr, i8, i8, i8, i8, i32, [32 x %struct.ResourceElem], ptr, i32, i32, [15 x ptr] }
%struct.ResourceElem = type { i64, ptr }
%struct.ResourceOwnerDesc = type { ptr, i32, i32, ptr, ptr }

@.str.1 = private unnamed_addr constant [11 x i8] c"resowner.c\00", align 1
@.str.7 = private unnamed_addr constant [6 x i8] c"%s %p\00", align 1
@.str.8 = private unnamed_addr constant [28 x i8] c"resource was not closed: %s\00", align 1
@__func__.ResourceOwnerReleaseAll = private unnamed_addr constant [24 x i8] c"ResourceOwnerReleaseAll\00", align 1

; Function Attrs: inlinehint nounwind uwtable
define internal ptr @DatumGetPointer(i64 noundef %0) #5 {
  %2 = alloca i64, align 8
  store i64 %0, ptr %2, align 8
  %3 = load i64, ptr %2, align 8
  %4 = inttoptr i64 %3 to ptr
  ret ptr %4
}

; Function Attrs: nounwind uwtable
define internal void @ResourceOwnerReleaseAll(ptr noundef %0, i32 noundef %1, i1 noundef zeroext %2) #0 {
  %4 = alloca ptr, align 8
  %5 = alloca i32, align 4
  %6 = alloca i8, align 1
  %7 = alloca ptr, align 8
  %8 = alloca i32, align 4
  %9 = alloca i32, align 4
  %10 = alloca i64, align 8
  %11 = alloca ptr, align 8
  %12 = alloca i32, align 4
  %13 = alloca ptr, align 8
  store ptr %0, ptr %4, align 8
  store i32 %1, ptr %5, align 4
  %14 = zext i1 %2 to i8
  store i8 %14, ptr %6, align 1
  call void @llvm.lifetime.start.p0(i64 8, ptr %7) #6
  call void @llvm.lifetime.start.p0(i64 4, ptr %8) #6
  %15 = load ptr, ptr %4, align 8
  %16 = getelementptr inbounds nuw %struct.ResourceOwnerData, ptr %15, i32 0, i32 8
  %17 = load i32, ptr %16, align 4
  %18 = icmp eq i32 %17, 0
  br i1 %18, label %19, label %27

19:                                               ; preds = %3
  %20 = load ptr, ptr %4, align 8
  %21 = getelementptr inbounds nuw %struct.ResourceOwnerData, ptr %20, i32 0, i32 9
  %22 = getelementptr inbounds [32 x %struct.ResourceElem], ptr %21, i64 0, i64 0
  store ptr %22, ptr %7, align 8
  %23 = load ptr, ptr %4, align 8
  %24 = getelementptr inbounds nuw %struct.ResourceOwnerData, ptr %23, i32 0, i32 7
  %25 = load i8, ptr %24, align 1
  %26 = zext i8 %25 to i32
  store i32 %26, ptr %8, align 4
  br label %34

27:                                               ; preds = %3
  %28 = load ptr, ptr %4, align 8
  %29 = getelementptr inbounds nuw %struct.ResourceOwnerData, ptr %28, i32 0, i32 10
  %30 = load ptr, ptr %29, align 8
  store ptr %30, ptr %7, align 8
  %31 = load ptr, ptr %4, align 8
  %32 = getelementptr inbounds nuw %struct.ResourceOwnerData, ptr %31, i32 0, i32 8
  %33 = load i32, ptr %32, align 4
  store i32 %33, ptr %8, align 4
  br label %34

34:                                               ; preds = %27, %19
  br label %35

35:                                               ; preds = %103, %34
  %36 = load i32, ptr %8, align 4
  %37 = icmp ugt i32 %36, 0
  br i1 %37, label %38, label %104

38:                                               ; preds = %35
  call void @llvm.lifetime.start.p0(i64 4, ptr %9) #6
  %39 = load i32, ptr %8, align 4
  %40 = sub i32 %39, 1
  store i32 %40, ptr %9, align 4
  call void @llvm.lifetime.start.p0(i64 8, ptr %10) #6
  %41 = load ptr, ptr %7, align 8
  %42 = load i32, ptr %9, align 4
  %43 = zext i32 %42 to i64
  %44 = getelementptr inbounds nuw %struct.ResourceElem, ptr %41, i64 %43
  %45 = getelementptr inbounds nuw %struct.ResourceElem, ptr %44, i32 0, i32 0
  %46 = load i64, ptr %45, align 8
  store i64 %46, ptr %10, align 8
  call void @llvm.lifetime.start.p0(i64 8, ptr %11) #6
  %47 = load ptr, ptr %7, align 8
  %48 = load i32, ptr %9, align 4
  %49 = zext i32 %48 to i64
  %50 = getelementptr inbounds nuw %struct.ResourceElem, ptr %47, i64 %49
  %51 = getelementptr inbounds nuw %struct.ResourceElem, ptr %50, i32 0, i32 1
  %52 = load ptr, ptr %51, align 8
  store ptr %52, ptr %11, align 8
  %53 = load ptr, ptr %11, align 8
  %54 = getelementptr inbounds nuw %struct.ResourceOwnerDesc, ptr %53, i32 0, i32 1
  %55 = load i32, ptr %54, align 8
  %56 = load i32, ptr %5, align 4
  %57 = icmp ugt i32 %55, %56
  br i1 %57, label %58, label %59

58:                                               ; preds = %38
  store i32 3, ptr %12, align 4
  br label %101

59:                                               ; preds = %38
  %60 = load i8, ptr %6, align 1, !range !4, !noundef !5
  %61 = trunc i8 %60 to i1
  br i1 %61, label %62, label %94

62:                                               ; preds = %59
  call void @llvm.lifetime.start.p0(i64 8, ptr %13) #6
  %63 = load ptr, ptr %11, align 8
  %64 = getelementptr inbounds nuw %struct.ResourceOwnerDesc, ptr %63, i32 0, i32 4
  %65 = load ptr, ptr %64, align 8
  %66 = icmp ne ptr %65, null
  br i1 %66, label %67, label %73

67:                                               ; preds = %62
  %68 = load ptr, ptr %11, align 8
  %69 = getelementptr inbounds nuw %struct.ResourceOwnerDesc, ptr %68, i32 0, i32 4
  %70 = load ptr, ptr %69, align 8
  %71 = load i64, ptr %10, align 8
  %72 = call ptr %70(i64 noundef %71)
  br label %80

73:                                               ; preds = %62
  %74 = load ptr, ptr %11, align 8
  %75 = getelementptr inbounds nuw %struct.ResourceOwnerDesc, ptr %74, i32 0, i32 0
  %76 = load ptr, ptr %75, align 8
  %77 = load i64, ptr %10, align 8
  %78 = call ptr @DatumGetPointer(i64 noundef %77)
  %79 = call ptr (ptr, ...) @psprintf(ptr noundef @.str.7, ptr noundef %76, ptr noundef %78)
  br label %80

80:                                               ; preds = %73, %67
  %81 = phi ptr [ %72, %67 ], [ %79, %73 ]
  store ptr %81, ptr %13, align 8
  br label %82

82:                                               ; preds = %80
  br i1 false, label %83, label %85

83:                                               ; preds = %82
  %84 = call zeroext i1 @errstart_cold(i32 noundef 19, ptr noundef null) #7
  br i1 %84, label %87, label %90

85:                                               ; preds = %82
  %86 = call zeroext i1 @errstart(i32 noundef 19, ptr noundef null)
  br i1 %86, label %87, label %90

87:                                               ; preds = %85, %83
  %88 = load ptr, ptr %13, align 8
  %89 = call i32 (ptr, ...) @errmsg_internal(ptr noundef @.str.8, ptr noundef %88)
  call void @errfinish(ptr noundef @.str.1, i32 noundef 387, ptr noundef @__func__.ResourceOwnerReleaseAll)
  br label %90

90:                                               ; preds = %87, %85, %83
  br label %91

91:                                               ; preds = %90
  br label %92

92:                                               ; preds = %91
  %93 = load ptr, ptr %13, align 8
  call void @pfree(ptr noundef %93)
  call void @llvm.lifetime.end.p0(i64 8, ptr %13) #6
  br label %94

94:                                               ; preds = %92, %59
  %95 = load ptr, ptr %11, align 8
  %96 = getelementptr inbounds nuw %struct.ResourceOwnerDesc, ptr %95, i32 0, i32 3
  %97 = load ptr, ptr %96, align 8
  %98 = load i64, ptr %10, align 8
  call void %97(i64 noundef %98)
  %99 = load i32, ptr %8, align 4
  %100 = add i32 %99, -1
  store i32 %100, ptr %8, align 4
  store i32 0, ptr %12, align 4
  br label %101

101:                                              ; preds = %94, %58
  call void @llvm.lifetime.end.p0(i64 8, ptr %11) #6
  call void @llvm.lifetime.end.p0(i64 8, ptr %10) #6
  call void @llvm.lifetime.end.p0(i64 4, ptr %9) #6
  %102 = load i32, ptr %12, align 4
  switch i32 %102, label %119 [
    i32 0, label %103
    i32 3, label %104
  ]

103:                                              ; preds = %101
  br label %35, !llvm.loop !21

104:                                              ; preds = %101, %35
  %105 = load ptr, ptr %4, align 8
  %106 = getelementptr inbounds nuw %struct.ResourceOwnerData, ptr %105, i32 0, i32 8
  %107 = load i32, ptr %106, align 4
  %108 = icmp eq i32 %107, 0
  br i1 %108, label %109, label %114

109:                                              ; preds = %104
  %110 = load i32, ptr %8, align 4
  %111 = trunc i32 %110 to i8
  %112 = load ptr, ptr %4, align 8
  %113 = getelementptr inbounds nuw %struct.ResourceOwnerData, ptr %112, i32 0, i32 7
  store i8 %111, ptr %113, align 1
  br label %118

114:                                              ; preds = %104
  %115 = load i32, ptr %8, align 4
  %116 = load ptr, ptr %4, align 8
  %117 = getelementptr inbounds nuw %struct.ResourceOwnerData, ptr %116, i32 0, i32 8
  store i32 %115, ptr %117, align 4
  br label %118

118:                                              ; preds = %114, %109
  call void @llvm.lifetime.end.p0(i64 4, ptr %8) #6
  call void @llvm.lifetime.end.p0(i64 8, ptr %7) #6
  ret void

119:                                              ; preds = %101
  unreachable
}