; Function Attrs: nounwind uwtable
define internal fastcc void @ResourceOwnerReleaseAll(ptr noundef captures(none) %0, i32 noundef range(i32 1, 4) %1, i1 noundef zeroext %2) unnamed_addr #0 {
  %4 = getelementptr inbounds nuw i8, ptr %0, i64 36
  %5 = load i32, ptr %4, align 4
  %6 = icmp eq i32 %5, 0
  br i1 %6, label %9, label %.thread49

.thread49:                                        ; preds = %3
  %7 = getelementptr inbounds nuw i8, ptr %0, i64 552
  %8 = load ptr, ptr %7, align 8
  br label %.lr.ph

9:                                                ; preds = %3
  %10 = getelementptr inbounds nuw i8, ptr %0, i64 40
  %11 = getelementptr inbounds nuw i8, ptr %0, i64 35
  %12 = load i8, ptr %11, align 1
  %13 = zext i8 %12 to i32
  %.not37 = icmp eq i8 %12, 0
  br i1 %.not37, label %.thread, label %.lr.ph

.lr.ph:                                           ; preds = %.thread49, %9
  %.054 = phi ptr [ %8, %.thread49 ], [ %10, %9 ]
  %.03053 = phi i32 [ %5, %.thread49 ], [ %13, %9 ]
  %14 = zext i32 %.03053 to i64
  br i1 %2, label %.lr.ph.split.us, label %.lr.ph.split

.lr.ph.split.us:                                  ; preds = %.lr.ph, %37
  %indvars.iv45 = phi i64 [ %indvars.iv.next46, %37 ], [ %14, %.lr.ph ]
  %indvars.iv.next46 = add nsw i64 %indvars.iv45, -1
  %15 = and i64 %indvars.iv.next46, 4294967295
  %16 = getelementptr inbounds nuw %struct.ResourceElem, ptr %.054, i64 %15
  %17 = load i64, ptr %16, align 8
  %18 = getelementptr inbounds nuw i8, ptr %16, i64 8
  %19 = load ptr, ptr %18, align 8
  %20 = getelementptr inbounds nuw i8, ptr %19, i64 8
  %21 = load i32, ptr %20, align 8
  %22 = icmp ugt i32 %21, %1
  br i1 %22, label %.thread.loopexit.split.loop.exit, label %23

23:                                               ; preds = %.lr.ph.split.us
  %24 = getelementptr inbounds nuw i8, ptr %19, i64 24
  %25 = load ptr, ptr %24, align 8
  %.not33.us = icmp eq ptr %25, null
  br i1 %.not33.us, label %28, label %26

26:                                               ; preds = %23
  %27 = tail call ptr %25(i64 noundef %17) #10
  br label %32

28:                                               ; preds = %23
  %29 = load ptr, ptr %19, align 8
  %30 = inttoptr i64 %17 to ptr
  %31 = tail call ptr (ptr, ...) @psprintf(ptr noundef nonnull @.str.7, ptr noundef %29, ptr noundef %30) #10
  br label %32

32:                                               ; preds = %28, %26
  %33 = phi ptr [ %27, %26 ], [ %31, %28 ]
  %34 = tail call zeroext i1 @errstart(i32 noundef 19, ptr noundef null) #10
  br i1 %34, label %35, label %37

35:                                               ; preds = %32
  %36 = tail call i32 (ptr, ...) @errmsg_internal(ptr noundef nonnull @.str.8, ptr noundef %33) #10
  tail call void @errfinish(ptr noundef nonnull @.str.1, i32 noundef 387, ptr noundef nonnull @__func__.ResourceOwnerReleaseAll) #10
  br label %37

37:                                               ; preds = %35, %32
  tail call void @pfree(ptr noundef %33) #10
  %38 = getelementptr inbounds nuw i8, ptr %19, i64 16
  %39 = load ptr, ptr %38, align 8
  tail call void %39(i64 noundef %17) #10
  %40 = and i64 %indvars.iv.next46, 4294967295
  %.not.us = icmp eq i64 %40, 0
  br i1 %.not.us, label %.thread, label %.lr.ph.split.us

.lr.ph.split:                                     ; preds = %.lr.ph, %48
  %indvars.iv = phi i64 [ %indvars.iv.next, %48 ], [ %14, %.lr.ph ]
  %indvars.iv.next = add nsw i64 %indvars.iv, -1
  %41 = and i64 %indvars.iv.next, 4294967295
  %42 = getelementptr inbounds nuw %struct.ResourceElem, ptr %.054, i64 %41
  %43 = getelementptr inbounds nuw i8, ptr %42, i64 8
  %44 = load ptr, ptr %43, align 8
  %45 = getelementptr inbounds nuw i8, ptr %44, i64 8
  %46 = load i32, ptr %45, align 8
  %47 = icmp ugt i32 %46, %1
  br i1 %47, label %.thread.loopexit55.split.loop.exit, label %48

48:                                               ; preds = %.lr.ph.split
  %49 = load i64, ptr %42, align 8
  %50 = getelementptr inbounds nuw i8, ptr %44, i64 16
  %51 = load ptr, ptr %50, align 8
  tail call void %51(i64 noundef %49) #10
  %52 = and i64 %indvars.iv.next, 4294967295
  %.not = icmp eq i64 %52, 0
  br i1 %.not, label %.thread, label %.lr.ph.split

.thread.loopexit.split.loop.exit:                 ; preds = %.lr.ph.split.us
  %53 = trunc nuw i64 %indvars.iv45 to i32
  br label %.thread

.thread.loopexit55.split.loop.exit:               ; preds = %.lr.ph.split
  %54 = trunc nuw i64 %indvars.iv to i32
  br label %.thread

.thread:                                          ; preds = %48, %37, %.thread.loopexit55.split.loop.exit, %.thread.loopexit.split.loop.exit, %9
  %.1.lcssa = phi i32 [ 0, %9 ], [ %53, %.thread.loopexit.split.loop.exit ], [ %54, %.thread.loopexit55.split.loop.exit ], [ 0, %37 ], [ 0, %48 ]
  %55 = load i32, ptr %4, align 4
  %56 = icmp eq i32 %55, 0
  br i1 %56, label %57, label %60

57:                                               ; preds = %.thread
  %58 = trunc i32 %.1.lcssa to i8
  %59 = getelementptr inbounds nuw i8, ptr %0, i64 35
  store i8 %58, ptr %59, align 1
  br label %61

60:                                               ; preds = %.thread
  store i32 %.1.lcssa, ptr %4, align 4
  br label %61

61:                                               ; preds = %60, %57
  ret void
}